(dp1
S'output'
p2
S'missing "pass" in view'
p3
sS'layer'
p4
S'ParserContainer'
p5
sS'code'
p6
S'response.write(\'<!DOCTYPE html>\\n<!--[if (gt IE 9)|!(IE)]><!--> <html class="no-js" lang="\', escape=False)\nresponse.write(T.accepted_language or \'en\')\nresponse.write(\'"> <!--<![endif]-->\\n  <head>\\n    <meta charset="utf-8">\\n    <!-- www.phpied.com/conditional-comments-block-downloads/ -->\\n    <!-- Always force latest IE rendering engine\\n         (even in intranet) & Chrome Frame\\n         Remove this if you use the .htaccess -->\\n    <meta http-equiv="X-UA-Compatible" content="IE=edge\', escape=False)\nresponse.write(not request.is_local and \',chrome=1\' or \'\')\nresponse.write(\'">\\n    <!--  Mobile Viewport Fix\\n          j.mp/mobileviewport & davidbcalhoun.com/2010/viewport-metatag\\n          device-width: Occupy full width of the screen in its current orientation\\n          initial-scale = 1.0 retains dimensions instead of zooming out if page height > device height\\n          user-scalable = yes allows the user to zoom in -->\\n    <meta name="viewport" content="width=device-width, initial-scale=1.0">\\n    <title>\', escape=False)\nresponse.write(response.title or request.application)\nresponse.write(\'</title>\\n    <!-- http://dev.w3.org/html5/markup/meta.name.html -->\\n    <meta name="application-name" content="\', escape=False)\nresponse.write(request.application)\nresponse.write(\'">\\n    <!-- Speaking of Google, don\\\'t forget to set your site up:\\n         http://google.com/webmasters -->\\n    <meta name="google-site-verification" content="">\\n    <!-- include stylesheets -->\\n    <link rel="stylesheet" href="\', escape=False)\nresponse.write(URL(\'static\',\'css/bootstrap.min.css\'))\nresponse.write(\'"/>\\n    <link rel="stylesheet" href="\', escape=False)\nresponse.write(URL(\'static\',\'css/bootstrap-theme.min.css\'))\nresponse.write(\'"/>\\n    <link rel="stylesheet" href="\', escape=False)\nresponse.write(URL(\'static\',\'css/web2py-bootstrap3.css\'))\nresponse.write(\'"/>\\n    <link rel="shortcut icon" href="\', escape=False)\nresponse.write(URL(\'static\',\'images/favicon.ico\'))\nresponse.write(\'" type="image/x-icon">\\n    <link rel="apple-touch-icon" href="\', escape=False)\nresponse.write(URL(\'static\',\'images/favicon.png\'))\nresponse.write(\'">\\n    <!-- All JavaScript at the bottom, except for Modernizr which enables\\n         HTML5 elements & feature detects -->\\n    <script src="\', escape=False)\nresponse.write(URL(\'static\',\'js/modernizr-2.8.3.min.js\'))\nresponse.write(\'"></script>\\n    <!--[if lt IE 9]>\\n        <script src="\', escape=False)\nresponse.write(URL(\'static\',\'js/respond-1.4.2.min.js\'))\nresponse.write(\'"></script>\\n        <![endif]-->\\n    <!-- Favicons -->\\n    \', escape=False)\nresponse.write(\'<script type="text/javascript"><!--\\n    // These variables are used by the web2py_ajax_init function in web2py_ajax.js (which is loaded below).\\n    var w2p_ajax_confirm_message = "\', escape=False)\nresponse.write(T(\'Are you sure you want to delete this object?\'))\nresponse.write(\'";\\n    var w2p_ajax_disable_with_message = "\', escape=False)\nresponse.write(T(\'Working...\'))\nresponse.write(\'";\\n    var w2p_ajax_date_format = "\', escape=False)\nresponse.write(T(\'%Y-%m-%d\'))\nresponse.write(\'";\\n    var w2p_ajax_datetime_format = "\', escape=False)\nresponse.write(T(\'%Y-%m-%d %H:%M:%S\'))\nresponse.write(\'";\\n    var ajax_error_500 = \\\'\', escape=False)\nresponse.write(T.M(\'An error occured, please [[reload %s]] the page\') % URL(args=request.args, vars=request.get_vars))\nresponse.write("\'\\n    //--></script>\\n", escape=False)\nresponse.files.insert(0,URL(\'static\',\'js/jquery.js\'))\nresponse.files.insert(1,URL(\'static\',\'css/calendar.css\'))\nresponse.files.insert(2,URL(\'static\',\'js/calendar.js\'))\nresponse.files.insert(3,URL(\'static\',\'js/web2py.js\'))\nresponse.include_meta()\nresponse.include_files()\nresponse.write(\'\\n\', escape=False)\nresponse.write(\' <!-- this includes jquery.js, calendar.js/.css and web2py.js -->\\n    \', escape=False)\nresponse.write(\'\\n    \', escape=False)\n# using sidebars need to know what sidebar you want to use\nmc0 = \'col-md-12\'\nmc1 = \'col-md-9\'\nmc2 = \'col-md-6\'\nleft_sidebar_enabled = globals().get(\'left_sidebar_enabled\', False)\nright_sidebar_enabled = globals().get(\'right_sidebar_enabled\', False)\nmiddle_column = {0: mc0, 1: mc1, 2: mc2}[\n(left_sidebar_enabled and 1 or 0)+(right_sidebar_enabled and 1 or 0)]\nresponse.write(\'\\n  </head>\\n  <body>\\n    <!--[if lt IE 8]><p class="browserupgrade">You are using an <strong>outdated</strong> browser. Please <a href="http://browsehappy.com/">upgrade your browser</a> to improve your experience.</p><![endif]-->\\n    <div class="flash alert alert-dismissable">\', escape=False)\nresponse.write(response.flash or \'\')\nresponse.write(\'</div>\\n    <!-- Navbar ======================================= -->\\n    <nav class="navbar navbar-inverse navbar-fixed-top" role="navigation">\\n      <div class="container-fluid">\\n        <div class="navbar-header">\\n          <button type="button" class="navbar-toggle" data-toggle="collapse" data-target=".navbar-collapse">\\n            <span class="sr-only">Toggle navigation</span>\\n            <span class="icon-bar"></span>\\n            <span class="icon-bar"></span>\\n            <span class="icon-bar"></span>\\n          </button>\\n          \', escape=False)\nresponse.write(response.logo or \'\')\nresponse.write(\'\\n        </div>\\n        <div class="collapse navbar-collapse navbar-ex1-collapse">\\n          <ul class="nav navbar-nav navbar-right">\\n            \', escape=False)\nresponse.write(\'auth\' in globals() and auth.navbar(\'Welcome\',mode=\'dropdown\') or \'\')\nresponse.write(\'\\n          </ul>\\n          \', escape=False)\nif response.menu:\n    response.write(\'\\n          \', escape=False)\n    response.write(MENU(response.menu, _class=\'nav navbar-nav\',li_class=\'dropdown\',ul_class=\'dropdown-menu\'))\n    response.write(\'\\n          \', escape=False)\n    pass\nresponse.write(\'\\n        </div>\\n      </div>\\n    </nav>\\n    <!-- Masthead ===================================== -->    \\n    \', escape=False)\nresponse.write(\'\\n    \', escape=False)\nresponse.write(\'\\n    <!-- Main ========================================= -->\\n    <!-- Begin page content -->\\n    <div class="container-fluid main-container">\\n      \', escape=False)\nif left_sidebar_enabled:\n    response.write(\'\\n        <div class="col-md-3 left-sidebar">\\n            \', escape=False)\n    response.write(\'\\n            <h3>Left Sidebar</h3>\\n            <p></p>\\n            \', escape=False)\n    response.write(\'\\n        </div>\\n      \', escape=False)\n    pass\nresponse.write(\'\\n\\n      <div class="\', escape=False)\nresponse.write(middle_column)\nresponse.write(\'">\\n        \', escape=False)\nresponse.write(\'\\n        \', escape=False)\nresponse.write(\'\\n<style type="text/css">\\n\\t\\n\\t.timeline {\\n  list-style: none;\\n  padding: 20px 0 20px;\\n  position: relative;\\n}\\n.timeline:before {\\n  top: 0;\\n  bottom: 0;\\n  position: absolute;\\n  content: " ";\\n  width: 3px;\\n  background-color: #eeeeee;\\n  left: 25px;\\n  margin-right: -1.5px;\\n}\\n.timeline > li {\\n  margin-bottom: 20px;\\n  position: relative;\\n}\\n.timeline > li:before,\\n.timeline > li:after {\\n  content: " ";\\n  display: table;\\n}\\n.timeline > li:after {\\n  clear: both;\\n}\\n.timeline > li:before,\\n.timeline > li:after {\\n  content: " ";\\n  display: table;\\n}\\n.timeline > li:after {\\n  clear: both;\\n}\\n.timeline > li > .timeline-panel {\\n  width: calc( 100% - 75px );\\n  float: right;\\n  border: 1px solid #d4d4d4;\\n  border-radius: 2px;\\n  padding: 20px;\\n  position: relative;\\n  -webkit-box-shadow: 0 1px 6px rgba(0, 0, 0, 0.175);\\n  box-shadow: 0 1px 6px rgba(0, 0, 0, 0.175);\\n}\\n.timeline > li > .timeline-panel:before {\\n  position: absolute;\\n  top: 26px;\\n  left: -15px;\\n  display: inline-block;\\n  border-top: 15px solid transparent;\\n  border-right: 15px solid #ccc;\\n  border-left: 0 solid #ccc;\\n  border-bottom: 15px solid transparent;\\n  content: " ";\\n}\\n.timeline > li > .timeline-panel:after {\\n  position: absolute;\\n  top: 27px;\\n  left: -14px;\\n  display: inline-block;\\n  border-top: 14px solid transparent;\\n  border-right: 14px solid #fff;\\n  border-left: 0 solid #fff;\\n  border-bottom: 14px solid transparent;\\n  content: " ";\\n}\\n.timeline > li > .timeline-badge {\\n  color: #fff;\\n  width: 50px;\\n  height: 50px;\\n  line-height: 50px;\\n  font-size: 1.4em;\\n  text-align: center;\\n  position: absolute;\\n  top: 16px;\\n  left: 0px;\\n  margin-right: -25px;\\n  background-color: #999999;\\n  z-index: 100;\\n  border-top-right-radius: 50%;\\n  border-top-left-radius: 50%;\\n  border-bottom-right-radius: 50%;\\n  border-bottom-left-radius: 50%;\\n}\\n.timeline > li.timeline-inverted > .timeline-panel {\\n  float: left;\\n}\\n.timeline > li.timeline-inverted > .timeline-panel:before {\\n  border-right-width: 0;\\n  border-left-width: 15px;\\n  right: -15px;\\n  left: auto;\\n}\\n.timeline > li.timeline-inverted > .timeline-panel:after {\\n  border-right-width: 0;\\n  border-left-width: 14px;\\n  right: -14px;\\n  left: auto;\\n}\\n.timeline-badge.primary {\\n  background-color: #2e6da4 !important;\\n}\\n.timeline-badge.success {\\n  background-color: #3f903f !important;\\n}\\n.timeline-badge.warning {\\n  background-color: #f0ad4e !important;\\n}\\n.timeline-badge.danger {\\n  background-color: #d9534f !important;\\n}\\n.timeline-badge.info {\\n  background-color: #5bc0de !important;\\n}\\n.timeline-title {\\n  margin-top: 0;\\n  color: inherit;\\n}\\n.timeline-body > p,\\n.timeline-body > ul {\\n  margin-bottom: 0;\\n}\\n.timeline-body > p + p {\\n  margin-top: 5px;\\n}\\n\\n.timeline-body {\\n    \\n}\\n\\n/* post */\\n.post-wrap {\\n    padding: 15px !important;\\n    border-radius: 2px !important;\\n    border: none !important;\\n}\\n.post-wrap + .post-wrap {\\n    margin-top: 40px;\\n    border-top: solid 1px #EEEEEE;\\n    padding-top: 40px;\\n}\\n\\n.post-masonry .post-wrap + .post-wrap {\\n    margin-top: 0;\\n    border-top: none;\\n    padding-top: 0;\\n}\\n.post-masonry .post-wrap {\\n    margin-bottom: 40px;\\n}\\n\\n.post-header {margin-bottom: 15px;}\\n.post-author {font-size: 18px;}\\n.post-author,\\n.post-author a {\\n    color: #999999;\\n    font-size: 13px;\\n}\\n.post-author a:hover {color :#25a35a;}\\n.post-meta {\\n    padding: 10px 0 0 0;\\n    font-size: 14px;\\n    line-height: 14px;\\n    color: #717d87;\\n}\\n.post-meta a {\\n    color: #717d87\\n}\\n.post-meta a:hover {\\n    color: #25a35a;\\n}\\n.post-meta .sep:before {content: "/"; margin: 0 5px;}\\n.post-date {margin-right: 10px;}\\n.post-media {margin-bottom: 20px; position: relative;}\\n.post-media .thumbnail {margin-bottom: 0;}\\n.post-media .media-link {\\n    padding: 15px 10px;\\n    background-color: #25a35a;\\n    color: #ffffff;\\n    font-size: 30px;\\n    font-weight: 300;\\n    border-radius: 2px;\\n}\\n.post-body {}\\n.post-excerpt {margin-bottom: 20px;}\\n.post-details {}\\n.post-title {\\n    margin-top: 0;\\n    margin-bottom: 0;\\n    text-transform: none;\\n}\\n.post-title,\\n.post-title a {\\n    color: #1f2122;\\n}\\n.post-title a:hover {\\n    color: #25a35a;\\n}\\n.post-footer {margin-top: 20px;}\\n.post-tags {display: block; font-size: 11px; line-height: 20px;}\\n.post-categories {display: block; font-size: 11px; line-height: 20px;}\\n\\n.about-the-author {\\n    margin-top: 40px;\\n    padding-top: 40px;\\n    border-top: solid 1px #EEEEEE;\\n}\\n</style>\\n\\n\\n\\n<script type="text/javascript">\\n\\t$(\\\'.timeline-panel\\\').click(function() {\\n    $(\\\'.timeline-body\\\', this).toggle(); // p00f\\n});\\n</script>\\n\\n\\n\\n\\n\\n\\n\\n\\n\\n\\n<div id="page-wrapper">\\n    <div class="container-fluid">\\n\\t    <!-- Page Heading -->\\t\\n        <div class="row">\\n    \\t    <div class="col-lg-12">\\n                <h1 class="page-header">\\n                      \', escape=False)\nresponse.write(session.userName)\nresponse.write(\'  <small>Statistics Overview</small>\\n                </h1>\\n                <div class="row">\\n                    <div class="col-lg-3 col-md-6">\\n                        <div class="panel panel-info">\\n                            <div class="panel-heading">\\n                                <div class="row">\\n                                    <div class="col-xs-6 text-left">\\n                                        \\t<div class="h4">My activities</div>\\n                                    </div>\\n                                </div>\\n                            </div>\\n                            <div class="panel-body">\\n\\n\\n<div class="container">\\n    <ul class="timeline">\\n    \\t\', escape=False)\nfor row in activity:\n    response.write(\'\\n        <div class="timeline-badge"><i class="glyphicon glyphicon-check"></i></div>\\n          <div class="timeline-panel">\\n            <div class="timeline-body">\\n              <article class="post-wrap thumbnail">\\n                <div class="post-media">                    \\n                    <div class="post-meta clearfix">\\n                        <span class="pull-left"><span class="post-date"><i class="fa fa-clock-o"></i> 08:00 to 18:00 pm</span> <span class="post-location"><i class="fa fa-map-marker"></i> Hall B</span> </span>\\n                    </div>\\n                </div>\\n                <div class="post-header">\\n                    <h4 class="post-title"><a href="#">Curabitur vitae metus in lectus ultrices.</a></h4>\\n                    <span class="post-author">by <a href="#">Author Name</a></span>\\n                </div>\\n                <div class="post-body">\\n                    <div class="post-excerpt">Exercitation Helvetica enim Truffaut, taxidermy chia scenester Marfa cardigan. Banjo fixie exercitation mlkshk, sustainable lo-fi vero before they sold out fugiat. Sriracha VHS hashtag, proident elit minim roof party nulla tousled PBR&B. Anim aesthetic McSweeney\\\'s, mollit enim gluten-free qui. </div>\\n                </div>\\n            </article>\\n            </div>\\n          </div>\\n        </li>\\n        <li>\\n          <div class="timeline-badge danger"><i class="glyphicon glyphicon-credit-card"></i></div>\\n          <div class="timeline-panel">\\n            <div class="timeline-heading">\\n              <h4 class="timeline-title">Mussum ipsum cacilds</h4>\\n            </div>\\n            <div class="timeline-body">\\n              <p>Mussum ipsum cacilds, vidis litro abertis. Consetis adipiscings elitis. Pra l\\xc3\\xa1 , depois divoltis porris, paradis. Paisis, filhis, espiritis santis. M\\xc3\\xa9 faiz elementum girarzis, nisi eros vermeio, in elementis m\\xc3\\xa9 pra quem \\xc3\\xa9 amistosis quis leo. Manduma pindureta quium dia nois paga. Sapien in monti palavris qui num significa nadis i pareci latim. Interessantiss quisso pudia ce receita de bolis, mais bolis eu num gostis.</p>\\n            </div>\\n          </div>\\n        </li>\\n        <li>\\n          <div class="timeline-badge info"><i class="glyphicon glyphicon-floppy-disk"></i></div>\\n          <div class="timeline-panel">\\n            <div class="timeline-heading">\\n              <h4 class="timeline-title">Mussum ipsum cacilds</h4>\\n            </div>\\n            <div class="timeline-body">\\n              <p>Mussum ipsum cacilds, vidis litro abertis. Consetis adipiscings elitis. Pra l\\xc3\\xa1 , depois divoltis porris, paradis. Paisis, filhis, espiritis santis. M\\xc3\\xa9 faiz elementum girarzis, nisi eros vermeio, in elementis m\\xc3\\xa9 pra quem \\xc3\\xa9 amistosis quis leo. Manduma pindureta quium dia nois paga. Sapien in monti palavris qui num significa nadis i pareci latim. Interessantiss quisso pudia ce receita de bolis, mais bolis eu num gostis.</p>\\n              <hr>\\n              <div class="btn-group">\\n                <button type="button" class="btn btn-primary btn-sm dropdown-toggle" data-toggle="dropdown">\\n                  <i class="glyphicon glyphicon-cog"></i> <span class="caret"></span>\\n                </button>\\n                <ul class="dropdown-menu" role="menu">\\n                  <li><a href="#">Action</a></li>\\n                  <li><a href="#">Another action</a></li>\\n                  <li><a href="#">Something else here</a></li>\\n                  <li class="divider"></li>\\n                  <li><a href="#">Separated link</a></li>\\n                </ul>\\n              </div>\\n            </div>\\n          </div>\\n        </li>\\n        <li>\\n          <div class="timeline-panel">\\n            <div class="timeline-heading">\\n              <h4 class="timeline-title">Mussum ipsum cacilds</h4>\\n            </div>\\n            <div class="timeline-body">\\n              <p>Mussum ipsum cacilds, vidis litro abertis. Consetis adipiscings elitis. Pra l\\xc3\\xa1 , depois divoltis porris, paradis. Paisis, filhis, espiritis santis. M\\xc3\\xa9 faiz elementum girarzis, nisi eros vermeio, in elementis m\\xc3\\xa9 pra quem \\xc3\\xa9 amistosis quis leo. Manduma pindureta quium dia nois paga. Sapien in monti palavris qui num significa nadis i pareci latim. Interessantiss quisso pudia ce receita de bolis, mais bolis eu num gostis.</p>\\n            </div>\\n          </div>\\n        </li>\\n    </ul>\\n</div>\\n\\n\\n\\n\\n\\n\\n\\n\\n\\n\\n\\n\\n\\n\\n\\n\\n\\n\\n                            </div>\\n                            <a href="#">\\n                                <div class="panel-footer">\\n                                    <span class="pull-left">View Details</span>\\n                                    <span class="pull-right"><i class="fa fa-arrow-circle-right"></i></span>\\n                                    <div class="clearfix"></div>\\n                                </div>\\n                            </a>\\n                        </div>\\n                    </div>\\n                    <div class="col-lg-3 col-md-6">\\n                        <div class="panel panel-info">\\n                            <div class="panel-heading">\\n                                <div class="row">\\n                                    <div class="col-xs-6 text-left">\\n                                        \\t<div class="h4">Contest Rankings</div>\\n                                    </div>\\n                                </div>\\n                            </div>\\n                            <div class="panel-body">\\n                            this will be a body part\\n\\n\\n                            </div>\\n                            <a href="#">\\n                                <div class="panel-footer">\\n                                    <span class="pull-left">View Details</span>\\n                                    <span class="pull-right"><i class="fa fa-arrow-circle-right"></i></span>\\n                                    <div class="clearfix"></div>\\n                                </div>\\n                            </a>\\n                        </div>\\n                    </div>\\n                    <div class="col-lg-3 col-md-6">\\n                        <div class="panel panel-info">\\n                            <div class="panel-heading">\\n                                <div class="row">\\n                                    <div class="col-xs-6 text-left">\\n                                        \\t<div class="h4">Submission Stats</div>\\n                                    </div>\\n                                </div>\\n                            </div>\\n                            <div class="panel-body">\\n                            this will be a body part\\n\\n\\n\\n\\n\\n\\n\\n\\n\\n\\n\\n\\n\\n                            </div>\\n                            <a href="#">\\n                                <div class="panel-footer">\\n                                    <span class="pull-left">View Details</span>\\n                                    <span class="pull-right"><i class="fa fa-arrow-circle-right"></i></span>\\n                                    <div class="clearfix"></div>\\n                                </div>\\n                            </a>\\n                        </div>\\n                        </div>\\n                        </div>\\t\\n                        </div>\\n                        </div>\\n                        </div>\\n\', escape=False)\n    response.write(\'\\n        \', escape=False)\n    response.write(\'\\n      </div>\\n\\n      \', escape=False)\n    if right_sidebar_enabled:\n        response.write(\'\\n        <div class="col-md-3">\\n            \', escape=False)\n        response.write(\'\\n            <h3>Right Sidebar</h3>\\n            <p></p>\\n            \', escape=False)\n        response.write(\'\\n        </div>\\n      \', escape=False)\n        pass\n    response.write(\'\\n\\n    </div>\\n\\n    \', escape=False)\n    response.write(\' <!-- this is default footer -->      \\n    <footer class="footer">\\n      <div class="container-fluid">\\n        <div class="copyright pull-left">\', escape=False)\n    response.write(T(\'Copyright\'))\n    response.write(\' &#169; \', escape=False)\n    response.write(request.now.year)\n    response.write(\'</div>\\n          <div id="poweredBy" class="pull-right">\\n            \', escape=False)\n    response.write(T(\'Powered by\'))\n    response.write(\'\\n            <a href="http://www.iiit.ac.in/">\\n                IIITH</a>\\n          </div>\\n      </div>\\n    </footer>\\n    \', escape=False)\n    response.write(\'\\n    <!-- The javascript =============================== -->\\n    <script src="\', escape=False)\n    response.write(URL(\'static\',\'js/bootstrap.min.js\'))\n    response.write(\'"></script>\\n    <script src="\', escape=False)\n    response.write(URL(\'static\',\'js/web2py-bootstrap3.js\'))\n    response.write(\'"></script>\\n    \', escape=False)\n    response.write(\'\\n    \', escape=False)\n    if response.google_analytics_id:\n        response.write(\'\\n    <!-- Analytics ==================================== -->\\n    <script src="\', escape=False)\n        response.write(URL(\'static\',\'js/analytics.min.js\'))\n        response.write(\'"></script>\\n    <script type="text/javascript">\\n      analytics.initialize({\\n      \\\'Google Analytics\\\':{trackingId:\\\'\', escape=False)\n        response.write(response.google_analytics_id)\n        response.write("\'}\\n      });\\n    </script>\\n    ", escape=False)\n        pass\n    response.write(\'\\n    <!-- Share ============================y============ -->\\n    <script src="\', escape=False)\n    response.write(URL(\'static\',\'js/share.js\',vars=dict(static=URL(\'static\',\'images\'))))\n    response.write(\'"></script>\\n  </body>\\n</html>\\n\', escape=False)'
p7
sS'snapshot'
p8
(dp9
S'exception'
p10
(dp11
S'__module__'
p12
S"'gluon.rocket'"
p13
sS'__getslice__'
p14
S"<method-wrapper '__getslice__' of SocketTimeout object>"
p15
sS'__str__'
p16
S"<method-wrapper '__str__' of SocketTimeout object>"
p17
sS'__reduce__'
p18
S'<built-in method __reduce__ of SocketTimeout object>'
p19
sS'__dict__'
p20
S'{}'
p21
sS'__sizeof__'
p22
S'<built-in method __sizeof__ of SocketTimeout object>'
p23
sS'__weakref__'
p24
S'None'
p25
sS'__init__'
p26
S"<method-wrapper '__init__' of SocketTimeout object>"
p27
sS'__setattr__'
p28
S"<method-wrapper '__setattr__' of SocketTimeout object>"
p29
sS'__reduce_ex__'
p30
S'<built-in method __reduce_ex__ of SocketTimeout object>'
p31
sS'__new__'
p32
S'<built-in method __new__ of type object>'
p33
sS'__format__'
p34
S'<built-in method __format__ of SocketTimeout object>'
p35
sS'__class__'
p36
S"<class 'gluon.rocket.SocketTimeout'>"
p37
sS'__doc__'
p38
S"'Exception for when a socket times out between requests.'"
p39
sS'__getitem__'
p40
S"<method-wrapper '__getitem__' of SocketTimeout object>"
p41
sS'__setstate__'
p42
S'<built-in method __setstate__ of SocketTimeout object>'
p43
sS'__getattribute__'
p44
S"<method-wrapper '__getattribute__' of SocketTimeout object>"
p45
sS'args'
p46
S"('Socket timed out before request.',)"
p47
sS'__subclasshook__'
p48
S'<built-in method __subclasshook__ of type object>'
p49
sS'__unicode__'
p50
S'<built-in method __unicode__ of SocketTimeout object>'
p51
sS'__delattr__'
p52
S"<method-wrapper '__delattr__' of SocketTimeout object>"
p53
sS'__repr__'
p54
S"<method-wrapper '__repr__' of SocketTimeout object>"
p55
sS'__hash__'
p56
S"<method-wrapper '__hash__' of SocketTimeout object>"
p57
ssS'evalue'
p58
S'Socket timed out before request.'
p59
sS'frames'
p60
(lp61
(dp62
S'file'
p63
S'/home/ganesh/Documents/IIITH/M-Tech/1-Sem/SCE/Projects/web2py/gluon/rocket.py'
p64
sS'dump'
p65
(dp66
S'self'
p67
S'<WSGIWorker(Thread-2, started daemon 140674847885056)>'
p68
sS'conn'
p69
S'<gluon.rocket.Connection object>'
p70
sS'self.run_app'
p71
S'<bound method WSGIWorker.run_app of <WSGIWorker(Thread-2, started daemon 140674847885056)>>'
p72
ssS'lnum'
p73
I1337
sS'lines'
p74
(dp75
I1332
S'            # Enter connection serve loop'
p76
sI1333
S'            while True:'
p77
sI1334
S'                if __debug__:'
p78
sI1335
S"                    self.err_log.debug('Serving a request')"
p79
sI1336
S'                try:'
p80
sI1337
S'                    self.run_app(conn)'
p81
sI1338
S'                except:'
p82
sI1339
S'                    exc = sys.exc_info()'
p83
sI1340
S'                    handled = self._handleError(*exc)'
p84
sI1341
S'                    if handled:'
p85
ssS'call'
p86
S'(self=<WSGIWorker(Thread-2, started daemon 140674847885056)>)'
p87
sS'func'
p88
S'run'
p89
sa(dp90
g63
S'/home/ganesh/Documents/IIITH/M-Tech/1-Sem/SCE/Projects/web2py/gluon/rocket.py'
p91
sg65
(dp92
S'self'
p93
S'<WSGIWorker(Thread-2, started daemon 140674847885056)>'
p94
sS'self.environ'
p95
S"{'HTTP_ACCEPT': 'text/html,application/xhtml+xml,application/xml;q=0.9,image/webp,*/*;q=0.8', 'HTTP_ACCEPT_ENCODING': 'gzip, deflate, sdch', 'HTTP_ACCEPT_LANGUAGE': 'en-US,en;q=0.8,hi;q=0.6', 'HTTP_CACHE_CONTROL': 'max-age=0', 'HTTP_CONNECTION': 'keep-alive', 'HTTP_COOKIE': 'session_id_welcome=127.0.0.1-8202c62d-84c7-46a9-...cj=127.0.0.1-3a46550f-a498-4be2-af18-40cb09de2421', 'HTTP_HOST': '127.0.0.1:8000', 'HTTP_REFERER': 'http://127.0.0.1:8000/OCJ/default/hostcontest', 'HTTP_UPGRADE_INSECURE_REQUESTS': '1', 'HTTP_USER_AGENT': 'Mozilla/5.0 (X11; Linux x86_64) AppleWebKit/537....ML, like Gecko) Chrome/46.0.2490.86 Safari/537.36', ...}"
p96
sS'sock_file'
p97
S'<socket._fileobject object>'
p98
sS'environ'
p99
S'undefined'
p100
sS'self.build_environ'
p101
S'<bound method WSGIWorker.build_environ of <WSGIWorker(Thread-2, started daemon 140674847885056)>>'
p102
sS'conn'
p103
S'<gluon.rocket.Connection object>'
p104
ssg73
I1830
sg74
(dp105
I1825
S'        else:'
p106
sI1826
S'            sock_file = conn.makefile(BUF_SIZE)'
p107
sI1827
S''
sI1828
S'        try:'
p108
sI1829
S'            # Read the headers and build our WSGI environment'
p109
sI1830
S'            self.environ = environ = self.build_environ(sock_file, conn)'
p110
sI1831
S''
sI1832
S'            # Handle 100 Continue'
p111
sI1833
S"            if environ.get('HTTP_EXPECT', '') == '100-continue':"
p112
sI1834
S"                res = environ['SERVER_PROTOCOL'] + ' 100 Continue\\r\\n\\r\\n'"
p113
ssg86
S'(self=<WSGIWorker(Thread-2, started daemon 140674847885056)>, conn=<gluon.rocket.Connection object>)'
p114
sg88
S'run_app'
p115
sa(dp116
g63
S'/home/ganesh/Documents/IIITH/M-Tech/1-Sem/SCE/Projects/web2py/gluon/rocket.py'
p117
sg65
(dp118
S'sock_file'
p119
S'<socket._fileobject object>'
p120
sS'self.read_request_line'
p121
S'<bound method WSGIWorker.read_request_line of <W...orker(Thread-2, started daemon 140674847885056)>>'
p122
sS'self'
p123
S'<WSGIWorker(Thread-2, started daemon 140674847885056)>'
p124
sS'request'
p125
g100
ssg73
I1650
sg74
(dp126
I1645
S'                                      "wsgiorg.futures": executor.futures})'
p127
sI1646
S''
sI1647
S'    def build_environ(self, sock_file, conn):'
p128
sI1648
S'        """ Build the execution environment. """'
p129
sI1649
S'        # Grab the request line'
p130
sI1650
S'        request = self.read_request_line(sock_file)'
p131
sI1651
S''
sI1652
S'        # Copy the Base Environment'
p132
sI1653
S'        environ = self.base_environ.copy()'
p133
sI1654
S''
ssg86
S'(self=<WSGIWorker(Thread-2, started daemon 140674847885056)>, sock_file=<socket._fileobject object>, conn=<gluon.rocket.Connection object>)'
p134
sg88
S'build_environ'
p135
sa(dp136
g63
S'/home/ganesh/Documents/IIITH/M-Tech/1-Sem/SCE/Projects/web2py/gluon/rocket.py'
p137
sg65
(dp138
S'global SocketTimeout'
p139
S"<class 'gluon.rocket.SocketTimeout'>"
p140
ssg73
I1401
sg74
(dp141
I1396
S''
sI1397
S'                d = sock_file.readline()'
p142
sI1398
S'                if PY3K:'
p143
sI1399
S"                    d = d.decode('ISO-8859-1')"
p144
sI1400
S'        except socket.timeout:'
p145
sI1401
S"            raise SocketTimeout('Socket timed out before request.')"
p146
sI1402
S'        except TypeError:'
p147
sI1403
S'            raise SocketClosed('
p148
sI1404
S"                'SSL bug caused closure of socket.  See '"
p149
sI1405
S'                \'"https://groups.google.com/d/topic/web2py/P_Gw0JxWzCs".\')'
p150
ssg86
S'(self=<WSGIWorker(Thread-2, started daemon 140674847885056)>, sock_file=<socket._fileobject object>)'
p151
sg88
S'read_request_line'
p152
sasS'pyver'
p153
S'Python 2.7.6: /usr/bin/python (prefix: /usr)'
p154
sS'etype'
p155
S"<class 'gluon.rocket.SocketTimeout'>"
p156
sS'date'
p157
S'Thu Nov 19 04:28:42 2015'
p158
sS'locals'
p159
(dp160
S'sock_file'
p161
S'<socket._fileobject object>'
p162
sS'self'
p163
S'<WSGIWorker(Thread-2, started daemon 140674847885056)>'
p164
sssS'traceback'
p165
S'Traceback (most recent call last):\n  File "/home/ganesh/Documents/IIITH/M-Tech/1-Sem/SCE/Projects/web2py/gluon/rocket.py", line 1337, in run\n    self.run_app(conn)\n  File "/home/ganesh/Documents/IIITH/M-Tech/1-Sem/SCE/Projects/web2py/gluon/rocket.py", line 1830, in run_app\n    self.environ = environ = self.build_environ(sock_file, conn)\n  File "/home/ganesh/Documents/IIITH/M-Tech/1-Sem/SCE/Projects/web2py/gluon/rocket.py", line 1650, in build_environ\n    request = self.read_request_line(sock_file)\n  File "/home/ganesh/Documents/IIITH/M-Tech/1-Sem/SCE/Projects/web2py/gluon/rocket.py", line 1401, in read_request_line\n    raise SocketTimeout(\'Socket timed out before request.\')\nSocketTimeout: Socket timed out before request.\n'
p166
s.